; Function Attrs: nounwind uwtable
define ptr @Acb_RemapOneFunction(ptr noundef %0, ptr noundef readonly captures(none) %1, ptr noundef readonly captures(none) %2, i32 noundef %3) local_unnamed_addr #0 {
  %5 = tail call noalias dereferenceable_or_null(16) ptr @malloc(i64 noundef 16) #29
  %6 = getelementptr inbounds nuw i8, ptr %5, i64 4
  store i32 0, ptr %6, align 4
  store i32 100, ptr %5, align 8
  %7 = tail call noalias dereferenceable_or_null(100) ptr @malloc(i64 noundef 100) #29
  %8 = getelementptr inbounds nuw i8, ptr %5, i64 8
  store ptr %7, ptr %8, align 8
  %9 = tail call ptr @strtok(ptr noundef %0, ptr noundef nonnull @.str.27) #31
  %.not44 = icmp eq ptr %9, null
  br i1 %.not44, label %._crit_edge, label %.preheader41.lr.ph

.preheader41.lr.ph:                               ; preds = %4
  %10 = icmp sgt i32 %3, 0
  %11 = getelementptr i8, ptr %1, i64 8
  %12 = getelementptr i8, ptr %2, i64 8
  br i1 %10, label %.preheader41.us, label %.preheader41

.preheader41.us:                                  ; preds = %.preheader41.lr.ph, %15
  %.045.us = phi ptr [ %21, %15 ], [ %9, %.preheader41.lr.ph ]
  br label %33

..preheader_crit_edge.us:                         ; preds = %Vec_StrPush.exit.us, %32
  %indvars.iv49 = phi i64 [ %indvars.iv.next50, %32 ], [ 0, %Vec_StrPush.exit.us ]
  %13 = getelementptr inbounds nuw i8, ptr %.045.us, i64 %indvars.iv49
  %14 = load i8, ptr %13, align 1
  switch i8 %14, label %22 [
    i8 32, label %15
    i8 45, label %32
  ]

15:                                               ; preds = %..preheader_crit_edge.us
  %16 = getelementptr inbounds nuw i8, ptr %.045.us, i64 %indvars.iv49
  %17 = getelementptr inbounds nuw i8, ptr %16, i64 1
  %18 = load i8, ptr %17, align 1
  %19 = sext i8 %18 to i32
  %20 = add nsw i32 %19, -48
  tail call void (ptr, ptr, ...) @Vec_StrPrintF(ptr noundef nonnull %5, ptr noundef nonnull @.str.121, i32 noundef %20)
  %21 = tail call ptr @strtok(ptr noundef null, ptr noundef nonnull @.str.27) #31
  %.not.us = icmp eq ptr %21, null
  br i1 %.not.us, label %._crit_edge, label %.preheader41.us, !llvm.loop !182

22:                                               ; preds = %..preheader_crit_edge.us
  %.val31.us = load ptr, ptr %11, align 8
  %23 = getelementptr inbounds nuw i32, ptr %.val31.us, i64 %indvars.iv49
  %24 = load i32, ptr %23, align 4
  %.val.us = load ptr, ptr %12, align 8
  %25 = sext i32 %24 to i64
  %26 = getelementptr inbounds i32, ptr %.val.us, i64 %25
  %27 = load i32, ptr %26, align 4
  %.val32.us = load i32, ptr %6, align 4
  %28 = sub i32 %27, %3
  %29 = add i32 %28, %.val32.us
  %.val33.us = load ptr, ptr %8, align 8
  %30 = sext i32 %29 to i64
  %31 = getelementptr inbounds i8, ptr %.val33.us, i64 %30
  store i8 %14, ptr %31, align 1
  br label %32

32:                                               ; preds = %22, %..preheader_crit_edge.us
  %indvars.iv.next50 = add nuw nsw i64 %indvars.iv49, 1
  br label %..preheader_crit_edge.us, !llvm.loop !183

33:                                               ; preds = %.preheader41.us, %Vec_StrPush.exit.us
  %.02642.us = phi i32 [ 0, %.preheader41.us ], [ %60, %Vec_StrPush.exit.us ]
  %34 = load i32, ptr %6, align 4
  %35 = load i32, ptr %5, align 8
  %36 = icmp eq i32 %34, %35
  br i1 %36, label %37, label %.Vec_StrGrow.exit10_crit_edge.i.us

.Vec_StrGrow.exit10_crit_edge.i.us:               ; preds = %33
  %.pre.i.us = load ptr, ptr %8, align 8
  br label %Vec_StrPush.exit.us

37:                                               ; preds = %33
  %38 = icmp slt i32 %34, 16
  br i1 %38, label %49, label %39

39:                                               ; preds = %37
  %40 = shl nuw nsw i32 %34, 1
  %41 = load ptr, ptr %8, align 8
  %.not9.i9.i.us = icmp eq ptr %41, null
  %42 = zext nneg i32 %40 to i64
  br i1 %.not9.i9.i.us, label %45, label %43

43:                                               ; preds = %39
  %44 = tail call ptr @realloc(ptr noundef nonnull %41, i64 noundef %42) #30
  br label %47

45:                                               ; preds = %39
  %46 = tail call noalias ptr @malloc(i64 noundef %42) #29
  br label %47

47:                                               ; preds = %45, %43
  %48 = phi ptr [ %44, %43 ], [ %46, %45 ]
  store ptr %48, ptr %8, align 8
  store i32 %40, ptr %5, align 8
  br label %Vec_StrPush.exit.us

49:                                               ; preds = %37
  %50 = load ptr, ptr %8, align 8
  %.not9.i.i.us = icmp eq ptr %50, null
  br i1 %.not9.i.i.us, label %53, label %51

51:                                               ; preds = %49
  %52 = tail call dereferenceable_or_null(16) ptr @realloc(ptr noundef nonnull %50, i64 noundef 16) #30
  br label %Vec_StrGrow.exit.i.us

53:                                               ; preds = %49
  %54 = tail call noalias dereferenceable_or_null(16) ptr @malloc(i64 noundef 16) #29
  br label %Vec_StrGrow.exit.i.us

Vec_StrGrow.exit.i.us:                            ; preds = %53, %51
  %55 = phi ptr [ %52, %51 ], [ %54, %53 ]
  store ptr %55, ptr %8, align 8
  store i32 16, ptr %5, align 8
  br label %Vec_StrPush.exit.us

Vec_StrPush.exit.us:                              ; preds = %Vec_StrGrow.exit.i.us, %47, %.Vec_StrGrow.exit10_crit_edge.i.us
  %56 = phi ptr [ %.pre.i.us, %.Vec_StrGrow.exit10_crit_edge.i.us ], [ %48, %47 ], [ %55, %Vec_StrGrow.exit.i.us ]
  %57 = add nsw i32 %34, 1
  store i32 %57, ptr %6, align 4
  %58 = sext i32 %34 to i64
  %59 = getelementptr inbounds i8, ptr %56, i64 %58
  store i8 45, ptr %59, align 1
  %60 = add nuw nsw i32 %.02642.us, 1
  %exitcond.not = icmp eq i32 %60, %3
  br i1 %exitcond.not, label %..preheader_crit_edge.us, label %33, !llvm.loop !184

.preheader41:                                     ; preds = %.preheader41.lr.ph, %75
  %.045 = phi ptr [ %81, %75 ], [ %9, %.preheader41.lr.ph ]
  br label %61

61:                                               ; preds = %.preheader41, %74
  %indvars.iv = phi i64 [ 0, %.preheader41 ], [ %indvars.iv.next, %74 ]
  %62 = getelementptr inbounds nuw i8, ptr %.045, i64 %indvars.iv
  %63 = load i8, ptr %62, align 1
  switch i8 %63, label %64 [
    i8 32, label %75
    i8 45, label %74
  ]

64:                                               ; preds = %61
  %.val31 = load ptr, ptr %11, align 8
  %65 = getelementptr inbounds nuw i32, ptr %.val31, i64 %indvars.iv
  %66 = load i32, ptr %65, align 4
  %.val = load ptr, ptr %12, align 8
  %67 = sext i32 %66 to i64
  %68 = getelementptr inbounds i32, ptr %.val, i64 %67
  %69 = load i32, ptr %68, align 4
  %.val32 = load i32, ptr %6, align 4
  %70 = sub i32 %69, %3
  %71 = add i32 %70, %.val32
  %.val33 = load ptr, ptr %8, align 8
  %72 = sext i32 %71 to i64
  %73 = getelementptr inbounds i8, ptr %.val33, i64 %72
  store i8 %63, ptr %73, align 1
  br label %74

74:                                               ; preds = %61, %64
  %indvars.iv.next = add nuw nsw i64 %indvars.iv, 1
  br label %61, !llvm.loop !183

75:                                               ; preds = %61
  %76 = getelementptr inbounds nuw i8, ptr %.045, i64 %indvars.iv
  %77 = getelementptr inbounds nuw i8, ptr %76, i64 1
  %78 = load i8, ptr %77, align 1
  %79 = sext i8 %78 to i32
  %80 = add nsw i32 %79, -48
  tail call void (ptr, ptr, ...) @Vec_StrPrintF(ptr noundef nonnull %5, ptr noundef nonnull @.str.121, i32 noundef %80)
  %81 = tail call ptr @strtok(ptr noundef null, ptr noundef nonnull @.str.27) #31
  %.not = icmp eq ptr %81, null
  br i1 %.not, label %._crit_edge, label %.preheader41, !llvm.loop !182

._crit_edge:                                      ; preds = %75, %15, %4
  %82 = load i32, ptr %6, align 4
  %83 = load i32, ptr %5, align 8
  %84 = icmp eq i32 %82, %83
  br i1 %84, label %85, label %.Vec_StrGrow.exit10_crit_edge.i34

.Vec_StrGrow.exit10_crit_edge.i34:                ; preds = %._crit_edge
  %.pre.i36 = load ptr, ptr %8, align 8
  br label %Vec_StrFree.exit

85:                                               ; preds = %._crit_edge
  %86 = icmp slt i32 %82, 16
  br i1 %86, label %87, label %94

87:                                               ; preds = %85
  %88 = load ptr, ptr %8, align 8
  %.not9.i.i38 = icmp eq ptr %88, null
  br i1 %.not9.i.i38, label %91, label %89

89:                                               ; preds = %87
  %90 = tail call dereferenceable_or_null(16) ptr @realloc(ptr noundef nonnull %88, i64 noundef 16) #30
  br label %Vec_StrGrow.exit.i39

91:                                               ; preds = %87
  %92 = tail call noalias dereferenceable_or_null(16) ptr @malloc(i64 noundef 16) #29
  br label %Vec_StrGrow.exit.i39

Vec_StrGrow.exit.i39:                             ; preds = %91, %89
  %93 = phi ptr [ %90, %89 ], [ %92, %91 ]
  store ptr %93, ptr %8, align 8
  br label %Vec_StrFree.exit

94:                                               ; preds = %85
  %95 = shl nuw nsw i32 %82, 1
  %96 = load ptr, ptr %8, align 8
  %.not9.i9.i37 = icmp eq ptr %96, null
  %97 = zext nneg i32 %95 to i64
  br i1 %.not9.i9.i37, label %100, label %98

98:                                               ; preds = %94
  %99 = tail call ptr @realloc(ptr noundef nonnull %96, i64 noundef %97) #30
  br label %102

100:                                              ; preds = %94
  %101 = tail call noalias ptr @malloc(i64 noundef %97) #29
  br label %102

102:                                              ; preds = %100, %98
  %103 = phi ptr [ %99, %98 ], [ %101, %100 ]
  store ptr %103, ptr %8, align 8
  br label %Vec_StrFree.exit

Vec_StrFree.exit:                                 ; preds = %102, %Vec_StrGrow.exit.i39, %.Vec_StrGrow.exit10_crit_edge.i34
  %104 = phi ptr [ %.pre.i36, %.Vec_StrGrow.exit10_crit_edge.i34 ], [ %103, %102 ], [ %93, %Vec_StrGrow.exit.i39 ]
  %105 = sext i32 %82 to i64
  %106 = getelementptr inbounds i8, ptr %104, i64 %105
  store i8 0, ptr %106, align 1
  %107 = load ptr, ptr %8, align 8
  tail call void @free(ptr noundef nonnull %5) #31
  ret ptr %107
}